target datalayout = "e-m:e-p270:32:32-p271:32:32-p272:64:64-i64:64-i128:128-f80:128-n8:16:32:64-S128"
target triple = "x86_64-pc-linux-gnu"

%struct.bio_ssl_st = type { ptr, i32, i64, i64, i64, i64 }

; Function Attrs: nounwind uwtable
define i32 @BIO_ssl_copy_session_id(ptr noundef %0, ptr noundef %1) #0 {
  %3 = alloca i32, align 4
  %4 = alloca ptr, align 8
  %5 = alloca ptr, align 8
  %6 = alloca ptr, align 8
  %7 = alloca ptr, align 8
  %8 = alloca i32, align 4
  store ptr %0, ptr %4, align 8, !tbaa !8
  store ptr %1, ptr %5, align 8, !tbaa !8
  call void @llvm.lifetime.start.p0(i64 8, ptr %6) #5
  call void @llvm.lifetime.start.p0(i64 8, ptr %7) #5
  %9 = load ptr, ptr %4, align 8, !tbaa !8
  %10 = call ptr @BIO_find_type(ptr noundef %9, i32 noundef 519)
  store ptr %10, ptr %4, align 8, !tbaa !8
  %11 = load ptr, ptr %5, align 8, !tbaa !8
  %12 = call ptr @BIO_find_type(ptr noundef %11, i32 noundef 519)
  store ptr %12, ptr %5, align 8, !tbaa !8
  %13 = load ptr, ptr %4, align 8, !tbaa !8
  %14 = icmp eq ptr %13, null
  br i1 %14, label %18, label %15

15:                                               ; preds = %2
  %16 = load ptr, ptr %5, align 8, !tbaa !8
  %17 = icmp eq ptr %16, null
  br i1 %17, label %18, label %19

18:                                               ; preds = %15, %2
  store i32 0, ptr %3, align 4
  store i32 1, ptr %8, align 4
  br label %45

19:                                               ; preds = %15
  %20 = load ptr, ptr %4, align 8, !tbaa !8
  %21 = call ptr @BIO_get_data(ptr noundef %20)
  store ptr %21, ptr %6, align 8, !tbaa !50
  %22 = load ptr, ptr %5, align 8, !tbaa !8
  %23 = call ptr @BIO_get_data(ptr noundef %22)
  store ptr %23, ptr %7, align 8, !tbaa !50
  %24 = load ptr, ptr %6, align 8, !tbaa !50
  %25 = getelementptr inbounds nuw %struct.bio_ssl_st, ptr %24, i32 0, i32 0
  %26 = load ptr, ptr %25, align 8, !tbaa !52
  %27 = icmp eq ptr %26, null
  br i1 %27, label %33, label %28

28:                                               ; preds = %19
  %29 = load ptr, ptr %7, align 8, !tbaa !50
  %30 = getelementptr inbounds nuw %struct.bio_ssl_st, ptr %29, i32 0, i32 0
  %31 = load ptr, ptr %30, align 8, !tbaa !52
  %32 = icmp eq ptr %31, null
  br i1 %32, label %33, label %34

33:                                               ; preds = %28, %19
  store i32 0, ptr %3, align 4
  store i32 1, ptr %8, align 4
  br label %45

34:                                               ; preds = %28
  %35 = load ptr, ptr %6, align 8, !tbaa !50
  %36 = getelementptr inbounds nuw %struct.bio_ssl_st, ptr %35, i32 0, i32 0
  %37 = load ptr, ptr %36, align 8, !tbaa !52
  %38 = load ptr, ptr %7, align 8, !tbaa !50
  %39 = getelementptr inbounds nuw %struct.bio_ssl_st, ptr %38, i32 0, i32 0
  %40 = load ptr, ptr %39, align 8, !tbaa !52
  %41 = call i32 @SSL_copy_session_id(ptr noundef %37, ptr noundef %40)
  %42 = icmp ne i32 %41, 0
  br i1 %42, label %44, label %43

43:                                               ; preds = %34
  store i32 0, ptr %3, align 4
  store i32 1, ptr %8, align 4
  br label %45

44:                                               ; preds = %34
  store i32 1, ptr %3, align 4
  store i32 1, ptr %8, align 4
  br label %45

45:                                               ; preds = %44, %43, %33, %18
  call void @llvm.lifetime.end.p0(i64 8, ptr %7) #5
  call void @llvm.lifetime.end.p0(i64 8, ptr %6) #5
  %46 = load i32, ptr %3, align 4
  ret i32 %46
}