; Function Attrs: nounwind uwtable
define range(i32 0, 2) i32 @BIO_ssl_copy_session_id(ptr noundef %0, ptr noundef %1) local_unnamed_addr #1 {
  %3 = tail call ptr @BIO_find_type(ptr noundef %0, i32 noundef 519) #5
  %4 = tail call ptr @BIO_find_type(ptr noundef %1, i32 noundef 519) #5
  %5 = icmp eq ptr %3, null
  %6 = icmp eq ptr %4, null
  %or.cond = select i1 %5, i1 true, i1 %6
  br i1 %or.cond, label %17, label %7

7:                                                ; preds = %2
  %8 = tail call ptr @BIO_get_data(ptr noundef nonnull %3) #5
  %9 = tail call ptr @BIO_get_data(ptr noundef nonnull %4) #5
  %10 = load ptr, ptr %8, align 8, !tbaa !43
  %11 = icmp eq ptr %10, null
  br i1 %11, label %17, label %12

12:                                               ; preds = %7
  %13 = load ptr, ptr %9, align 8, !tbaa !43
  %14 = icmp eq ptr %13, null
  br i1 %14, label %17, label %15

15:                                               ; preds = %12
  %16 = tail call i32 @SSL_copy_session_id(ptr noundef nonnull %10, ptr noundef nonnull %13) #5
  %.not = icmp ne i32 %16, 0
  %. = zext i1 %.not to i32
  br label %17

17:                                               ; preds = %15, %7, %12, %2
  %.0 = phi i32 [ 0, %2 ], [ 0, %12 ], [ 0, %7 ], [ %., %15 ]
  ret i32 %.0
}